(dp0
S'test_Twitter'
p1
(iSyncUser
SyncUser
p2
(dp3
S'id'
p4
(dp5
S'nick'
p6
S'test'
p7
sS'protocol'
p8
S'Twitter'
p9
ssS'_SyncUser__data'
p10
(iSyncData
SyncData
p11
(dp12
S'searches'
p13
(lp14
S'bla'
p15
aS'lol'
p16
asS'timestamp'
p17
F1249663181.956085
sS'groups'
p18
(lp19
S'hah'
p20
aS'heh'
p21
asS'seen'
p22
(lp23
I1
aI2
aI3
asbsbs.