(dp0
I1
(iStatUser
StatUser
p1
(dp2
S'tweets'
p3
I12
sS'uptime'
p4
I81
sS'properties'
p5
(dp6
S'searches'
p7
I4
sS'language'
p8
S'mb'
p9
sS'version'
p10
I5
sS'accounts'
p11
(lp12
S'test'
p13
aS'haha'
p14
asS'groups'
p15
I0
sS'following'
p16
I284
sS'followers'
p17
I259
ssS'id'
p18
I1
sS'runTimes'
p19
(lp20
F1250170291.2048581
aF1250170292.2096419
aF1250170293.2144001
asbsI2
(iStatUser
StatUser
p21
(dp22
g3
I14
sg4
I185
sg5
(dp23
g7
I10
sg8
S'kp'
p24
sg10
I3
sg11
(lp25
S'test'
p26
ag26
asg15
I10
sg16
I116
sg17
I280
ssg18
I2
sg19
(lp27
F1250170294.2200489
aF1250170295.2244561
aF1250170296.2282121
asbsI3
(iStatUser
StatUser
p28
(dp29
g3
I18
sg4
I177
sg5
(dp30
g7
I5
sg8
S'lj'
p31
sg10
I1
sg11
(lp32
S'test'
p33
aS'idiot'
p34
asg15
I5
sg16
I250
sg17
I252
ssg18
I3
sg19
(lp35
F1250170297.2321949
aF1250170298.236361
aF1250170299.240433
asbsI4
(iStatUser
StatUser
p36
(dp37
S'tweets'
p38
I0
sS'uptime'
p39
I0
sS'properties'
p40
(dp41
S'searches'
p42
I0
sS'language'
p43
I0
sS'version'
p44
I0
sS'accounts'
p45
(lp46
sS'groups'
p47
I0
sS'following'
p48
I0
sS'followers'
p49
I0
ssS'id'
p50
I4
sS'runTimes'
p51
(lp52
F1250170272.1618421
asbsI5
(iStatUser
StatUser
p53
(dp54
g38
I0
sg39
I0
sg40
(dp55
g42
I0
sg43
I0
sg44
I0
sg45
(lp56
sg47
I0
sg48
I0
sg49
I0
ssg50
I5
sg51
(lp57
F1250170272.1618509
asbsI6
(iStatUser
StatUser
p58
(dp59
S'tweets'
p60
I0
sS'uptime'
p61
I0
sS'id'
p62
I6
sS'properties'
p63
(dp64
S'searches'
p65
I0
sS'language'
p66
I0
sS'version'
p67
I0
sS'accounts'
p68
(lp69
sS'groups'
p70
I0
sS'following'
p71
I0
sS'followers'
p72
I0
ssS'runTimes'
p73
(lp74
F1250170272.1732321
asbsI7
(iStatUser
StatUser
p75
(dp76
g60
I0
sg61
I0
sg62
I7
sg63
(dp77
g65
I0
sg66
I0
sg67
I0
sg68
(lp78
sg70
I0
sg71
I0
sg72
I0
ssg73
(lp79
F1250170272.1732509
asbsI8
(iStatUser
StatUser
p80
(dp81
g60
I0
sg61
I0
sg62
I8
sg63
(dp82
g65
I0
sg66
I0
sg67
I0
sg68
(lp83
sg70
I0
sg71
I0
sg72
I0
ssg73
(lp84
F1250170272.1732681
asbsI9
(iStatUser
StatUser
p85
(dp86
S'tweets'
p87
I0
sS'uptime'
p88
I0
sS'properties'
p89
(dp90
S'searches'
p91
I0
sS'language'
p92
I0
sS'version'
p93
I0
sS'accounts'
p94
(lp95
sS'groups'
p96
I0
sS'following'
p97
I0
sS'followers'
p98
I0
ssS'id'
p99
I9
sS'runTimes'
p100
(lp101
F1250170272.1766961
asbs.